; ModuleID = '4/602.cpp'
source_filename = "4/602.cpp"
target datalayout = "e-m:e-p270:32:32-p271:32:32-p272:64:64-i64:64-f80:128-n8:16:32:64-S128"
target triple = "x86_64-pc-linux-gnu"

%"class.std::ios_base::Init" = type { i8 }
%"class.std::basic_istream" = type { i32 (...)**, i64, %"class.std::basic_ios" }
%"class.std::basic_ios" = type { %"class.std::ios_base", %"class.std::basic_ostream"*, i8, i8, %"class.std::basic_streambuf"*, %"class.std::ctype"*, %"class.std::num_put"*, %"class.std::num_get"* }
%"class.std::ios_base" = type { i32 (...)**, i64, i64, i32, i32, i32, %"struct.std::ios_base::_Callback_list"*, %"struct.std::ios_base::_Words", [8 x %"struct.std::ios_base::_Words"], i32, %"struct.std::ios_base::_Words"*, %"class.std::locale" }
%"struct.std::ios_base::_Callback_list" = type { %"struct.std::ios_base::_Callback_list"*, void (i32, %"class.std::ios_base"*, i32)*, i32, i32 }
%"struct.std::ios_base::_Words" = type { i8*, i64 }
%"class.std::locale" = type { %"class.std::locale::_Impl"* }
%"class.std::locale::_Impl" = type { i32, %"class.std::locale::facet"**, i64, %"class.std::locale::facet"**, i8** }
%"class.std::locale::facet" = type <{ i32 (...)**, i32, [4 x i8] }>
%"class.std::basic_ostream" = type { i32 (...)**, %"class.std::basic_ios" }
%"class.std::basic_streambuf" = type { i32 (...)**, i8*, i8*, i8*, i8*, i8*, i8*, %"class.std::locale" }
%"class.std::ctype" = type <{ %"class.std::locale::facet.base", [4 x i8], %struct.__locale_struct*, i8, [7 x i8], i32*, i32*, i16*, i8, [256 x i8], [256 x i8], i8, [6 x i8] }>
%"class.std::locale::facet.base" = type <{ i32 (...)**, i32 }>
%struct.__locale_struct = type { [13 x %struct.__locale_data*], i16*, i32*, i32*, [13 x i8*] }
%struct.__locale_data = type opaque
%"class.std::num_put" = type { %"class.std::locale::facet.base", [4 x i8] }
%"class.std::num_get" = type { %"class.std::locale::facet.base", [4 x i8] }

@_ZStL8__ioinit = internal global %"class.std::ios_base::Init" zeroinitializer, align 1
@__dso_handle = external hidden global i8
@_ZSt3cin = external dso_local global %"class.std::basic_istream", align 8
@_ZSt4cout = external dso_local global %"class.std::basic_ostream", align 8
@llvm.global_ctors = appending global [1 x { i32, void ()*, i8* }] [{ i32, void ()*, i8* } { i32 65535, void ()* @_GLOBAL__sub_I_602.cpp, i8* null }]

; Function Attrs: noinline uwtable
define internal void @__cxx_global_var_init() #0 section ".text.startup" {
  call void @_ZNSt8ios_base4InitC1Ev(%"class.std::ios_base::Init"* @_ZStL8__ioinit)
  %1 = call i32 @__cxa_atexit(void (i8*)* bitcast (void (%"class.std::ios_base::Init"*)* @_ZNSt8ios_base4InitD1Ev to void (i8*)*), i8* getelementptr inbounds (%"class.std::ios_base::Init", %"class.std::ios_base::Init"* @_ZStL8__ioinit, i32 0, i32 0), i8* @__dso_handle) #3
  ret void
}

declare dso_local void @_ZNSt8ios_base4InitC1Ev(%"class.std::ios_base::Init"*) unnamed_addr #1

; Function Attrs: nounwind
declare dso_local void @_ZNSt8ios_base4InitD1Ev(%"class.std::ios_base::Init"*) unnamed_addr #2

; Function Attrs: nounwind
declare dso_local i32 @__cxa_atexit(void (i8*)*, i8*, i8*) #3

; Function Attrs: noinline norecurse uwtable
define dso_local i32 @main() #4 {
  %1 = alloca i32, align 4
  %2 = alloca i32, align 4
  %3 = alloca i32, align 4
  %4 = alloca [1500 x [1500 x i32]], align 16
  %5 = alloca [10000 x i32], align 16
  %6 = alloca i32, align 4
  %7 = alloca i32, align 4
  %8 = alloca i32, align 4
  %9 = alloca i32, align 4
  store i32 0, i32* %1, align 4
  store i32 0, i32* %9, align 4
  %10 = call dereferenceable(280) %"class.std::basic_istream"* @_ZNSirsERi(%"class.std::basic_istream"* @_ZSt3cin, i32* dereferenceable(4) %2)
  %11 = call dereferenceable(280) %"class.std::basic_istream"* @_ZNSirsERi(%"class.std::basic_istream"* %10, i32* dereferenceable(4) %3)
  store i32 1, i32* %6, align 4
  br label %12

12:                                               ; preds = %30, %0
  %13 = load i32, i32* %6, align 4
  %14 = icmp sle i32 %13, 1499
  br i1 %14, label %15, label %33

15:                                               ; preds = %12
  store i32 1, i32* %7, align 4
  br label %16

16:                                               ; preds = %26, %15
  %17 = load i32, i32* %7, align 4
  %18 = icmp sle i32 %17, 1499
  br i1 %18, label %19, label %29

19:                                               ; preds = %16
  %20 = load i32, i32* %6, align 4
  %21 = sext i32 %20 to i64
  %22 = getelementptr inbounds [1500 x [1500 x i32]], [1500 x [1500 x i32]]* %4, i64 0, i64 %21
  %23 = load i32, i32* %7, align 4
  %24 = sext i32 %23 to i64
  %25 = getelementptr inbounds [1500 x i32], [1500 x i32]* %22, i64 0, i64 %24
  store i32 -198, i32* %25, align 4
  br label %26

26:                                               ; preds = %19
  %27 = load i32, i32* %7, align 4
  %28 = add nsw i32 %27, 1
  store i32 %28, i32* %7, align 4
  br label %16

29:                                               ; preds = %16
  br label %30

30:                                               ; preds = %29
  %31 = load i32, i32* %6, align 4
  %32 = add nsw i32 %31, 1
  store i32 %32, i32* %6, align 4
  br label %12

33:                                               ; preds = %12
  store i32 1, i32* %6, align 4
  br label %34

34:                                               ; preds = %55, %33
  %35 = load i32, i32* %6, align 4
  %36 = load i32, i32* %2, align 4
  %37 = icmp sle i32 %35, %36
  br i1 %37, label %38, label %58

38:                                               ; preds = %34
  store i32 1, i32* %7, align 4
  br label %39

39:                                               ; preds = %51, %38
  %40 = load i32, i32* %7, align 4
  %41 = load i32, i32* %3, align 4
  %42 = icmp sle i32 %40, %41
  br i1 %42, label %43, label %54

43:                                               ; preds = %39
  %44 = load i32, i32* %6, align 4
  %45 = sext i32 %44 to i64
  %46 = getelementptr inbounds [1500 x [1500 x i32]], [1500 x [1500 x i32]]* %4, i64 0, i64 %45
  %47 = load i32, i32* %7, align 4
  %48 = sext i32 %47 to i64
  %49 = getelementptr inbounds [1500 x i32], [1500 x i32]* %46, i64 0, i64 %48
  %50 = call dereferenceable(280) %"class.std::basic_istream"* @_ZNSirsERi(%"class.std::basic_istream"* @_ZSt3cin, i32* dereferenceable(4) %49)
  br label %51

51:                                               ; preds = %43
  %52 = load i32, i32* %7, align 4
  %53 = add nsw i32 %52, 1
  store i32 %53, i32* %7, align 4
  br label %39

54:                                               ; preds = %39
  br label %55

55:                                               ; preds = %54
  %56 = load i32, i32* %6, align 4
  %57 = add nsw i32 %56, 1
  store i32 %57, i32* %6, align 4
  br label %34

58:                                               ; preds = %34
  store i32 2, i32* %8, align 4
  br label %59

59:                                               ; preds = %98, %58
  %60 = load i32, i32* %8, align 4
  %61 = load i32, i32* %2, align 4
  %62 = load i32, i32* %3, align 4
  %63 = add nsw i32 %61, %62
  %64 = icmp sle i32 %60, %63
  br i1 %64, label %65, label %101

65:                                               ; preds = %59
  store i32 1, i32* %6, align 4
  br label %66

66:                                               ; preds = %94, %65
  %67 = load i32, i32* %6, align 4
  %68 = load i32, i32* %8, align 4
  %69 = icmp slt i32 %67, %68
  br i1 %69, label %70, label %97

70:                                               ; preds = %66
  %71 = load i32, i32* %6, align 4
  %72 = sext i32 %71 to i64
  %73 = getelementptr inbounds [1500 x [1500 x i32]], [1500 x [1500 x i32]]* %4, i64 0, i64 %72
  %74 = load i32, i32* %8, align 4
  %75 = load i32, i32* %6, align 4
  %76 = sub nsw i32 %74, %75
  %77 = sext i32 %76 to i64
  %78 = getelementptr inbounds [1500 x i32], [1500 x i32]* %73, i64 0, i64 %77
  %79 = load i32, i32* %78, align 4
  %80 = icmp ne i32 %79, -198
  br i1 %80, label %81, label %93

81:                                               ; preds = %70
  %82 = load i32, i32* %6, align 4
  %83 = sext i32 %82 to i64
  %84 = getelementptr inbounds [1500 x [1500 x i32]], [1500 x [1500 x i32]]* %4, i64 0, i64 %83
  %85 = load i32, i32* %8, align 4
  %86 = load i32, i32* %6, align 4
  %87 = sub nsw i32 %85, %86
  %88 = sext i32 %87 to i64
  %89 = getelementptr inbounds [1500 x i32], [1500 x i32]* %84, i64 0, i64 %88
  %90 = load i32, i32* %89, align 4
  %91 = call dereferenceable(272) %"class.std::basic_ostream"* @_ZNSolsEi(%"class.std::basic_ostream"* @_ZSt4cout, i32 %90)
  %92 = call dereferenceable(272) %"class.std::basic_ostream"* @_ZNSolsEPFRSoS_E(%"class.std::basic_ostream"* %91, %"class.std::basic_ostream"* (%"class.std::basic_ostream"*)* @_ZSt4endlIcSt11char_traitsIcEERSt13basic_ostreamIT_T0_ES6_)
  br label %93

93:                                               ; preds = %81, %70
  br label %94

94:                                               ; preds = %93
  %95 = load i32, i32* %6, align 4
  %96 = add nsw i32 %95, 1
  store i32 %96, i32* %6, align 4
  br label %66

97:                                               ; preds = %66
  br label %98

98:                                               ; preds = %97
  %99 = load i32, i32* %8, align 4
  %100 = add nsw i32 %99, 1
  store i32 %100, i32* %8, align 4
  br label %59

101:                                              ; preds = %59
  ret i32 0
}

declare dso_local dereferenceable(280) %"class.std::basic_istream"* @_ZNSirsERi(%"class.std::basic_istream"*, i32* dereferenceable(4)) #1

declare dso_local dereferenceable(272) %"class.std::basic_ostream"* @_ZNSolsEi(%"class.std::basic_ostream"*, i32) #1

declare dso_local dereferenceable(272) %"class.std::basic_ostream"* @_ZNSolsEPFRSoS_E(%"class.std::basic_ostream"*, %"class.std::basic_ostream"* (%"class.std::basic_ostream"*)*) #1

declare dso_local dereferenceable(272) %"class.std::basic_ostream"* @_ZSt4endlIcSt11char_traitsIcEERSt13basic_ostreamIT_T0_ES6_(%"class.std::basic_ostream"* dereferenceable(272)) #1

; Function Attrs: noinline uwtable
define internal void @_GLOBAL__sub_I_602.cpp() #0 section ".text.startup" {
  call void @__cxx_global_var_init()
  ret void
}


!llvm.module.flags = !{!0}
!llvm.ident = !{!1}

!0 = !{i32 1, !"wchar_size", i32 4}
!1 = !{!"clang version 10.0.0-4ubuntu1 "}
